; Function Attrs: mustprogress uwtable
define noundef i32 @_ZN7rocksdb14ThreadPoolImpl14ReserveThreadsEi(ptr noundef nonnull readonly align 8 captures(none) dereferenceable(16) %0, i32 noundef %1) unnamed_addr #3 align 2 personality ptr @__gxx_personality_v0 {
  %3 = getelementptr inbounds nuw i8, ptr %0, i64 8
  %4 = load ptr, ptr %3, align 8, !tbaa !155
  %5 = getelementptr inbounds nuw i8, ptr %4, i64 128
  %6 = tail call noundef i32 @pthread_mutex_lock(ptr noundef nonnull align 8 dereferenceable(40) %5) #26
  %.not.i.i.i.i = icmp eq i32 %6, 0
  br i1 %.not.i.i.i.i, label %_ZN7rocksdb14ThreadPoolImpl4Impl14ReserveThreadsEi.exit, label %7

7:                                                ; preds = %2
  tail call void @_ZSt20__throw_system_errori(i32 noundef %6) #29
  unreachable

_ZN7rocksdb14ThreadPoolImpl4Impl14ReserveThreadsEi.exit: ; preds = %2
  %8 = getelementptr inbounds nuw i8, ptr %4, i64 36
  %9 = load i32, ptr %8, align 4, !tbaa !45
  %10 = getelementptr inbounds nuw i8, ptr %4, i64 32
  %11 = load i32, ptr %10, align 8, !tbaa !44
  %12 = sub nsw i32 %9, %11
  %13 = tail call i32 @llvm.smax.i32(i32 %12, i32 0)
  %.sroa.speculated.i = tail call i32 @llvm.smin.i32(i32 %1, i32 %13)
  %14 = add nsw i32 %.sroa.speculated.i, %11
  store i32 %14, ptr %10, align 8, !tbaa !44
  %15 = tail call noundef i32 @pthread_mutex_unlock(ptr noundef nonnull align 8 dereferenceable(40) %5) #26
  ret i32 %.sroa.speculated.i
}